; Function Attrs: mustprogress uwtable
define hidden noundef i32 @_ZN4cvc56parser5Lexer9nextTokenEv(ptr noundef nonnull align 8 dereferenceable(32892) %0) local_unnamed_addr #3 align 2 {
  %2 = getelementptr inbounds nuw i8, ptr %0, i64 56
  %3 = load ptr, ptr %2, align 8, !tbaa !89
  %4 = getelementptr inbounds nuw i8, ptr %0, i64 64
  %5 = load ptr, ptr %4, align 8, !tbaa !89
  %6 = icmp eq ptr %3, %5
  br i1 %6, label %7, label %12

7:                                                ; preds = %1
  %8 = load ptr, ptr %0, align 8, !tbaa !9
  %9 = getelementptr inbounds nuw i8, ptr %8, i64 32
  %10 = load ptr, ptr %9, align 8
  %11 = tail call noundef i32 %10(ptr noundef nonnull align 8 dereferenceable(32892) %0)
  br label %15

12:                                               ; preds = %1
  %13 = getelementptr inbounds i8, ptr %5, i64 -4
  %14 = load i32, ptr %13, align 4, !tbaa !90
  store ptr %13, ptr %4, align 8, !tbaa !88
  br label %15

15:                                               ; preds = %12, %7
  %.0 = phi i32 [ %11, %7 ], [ %14, %12 ]
  ret i32 %.0
}